; Function Attrs: mustprogress nounwind uwtable
define hidden void @_ZN14JNIHandleBlock13release_blockEPS_P10JavaThread(ptr noundef %0, ptr noundef %1) local_unnamed_addr #1 align 2 {
  %.not = icmp eq ptr %1, null
  %3 = getelementptr inbounds i8, ptr %1, i64 1080
  br i1 %.not, label %.lr.ph.us.preheader, label %tailrecurse

.lr.ph.us.preheader:                              ; preds = %2, %.loopexit.us
  %.tr.us = phi ptr [ %5, %.loopexit.us ], [ %0, %2 ]
  %4 = getelementptr inbounds i8, ptr %.tr.us, i64 280
  %5 = load ptr, ptr %4, align 8
  br label %.lr.ph.us

.lr.ph.us:                                        ; preds = %.lr.ph.us.preheader, %.lr.ph.us
  %.129.us = phi ptr [ %7, %.lr.ph.us ], [ %.tr.us, %.lr.ph.us.preheader ]
  %6 = getelementptr inbounds i8, ptr %.129.us, i64 264
  %7 = load ptr, ptr %6, align 8
  %8 = tail call noundef i32 asm sideeffect "lock xaddl $0,($2)", "=r,0,r,~{cc},~{memory},~{dirflag},~{fpsr},~{flags}"(i32 -1, ptr nonnull @_ZN14JNIHandleBlock17_blocks_allocatedE) #11, !srcloc !10
  tail call void @_Z8FreeHeapPv(ptr noundef nonnull %.129.us) #11
  %.not22.us = icmp eq ptr %7, null
  br i1 %.not22.us, label %.loopexit.us, label %.lr.ph.us, !llvm.loop !17

.loopexit.us:                                     ; preds = %.lr.ph.us
  %.not25.us = icmp eq ptr %5, null
  br i1 %.not25.us, label %.split31.us, label %.lr.ph.us.preheader

tailrecurse:                                      ; preds = %2, %16
  %.tr = phi ptr [ %10, %16 ], [ %0, %2 ]
  %9 = getelementptr inbounds i8, ptr %.tr, i64 280
  %10 = load ptr, ptr %9, align 8
  %11 = load ptr, ptr %3, align 8
  store ptr null, ptr %9, align 8
  store ptr %.tr, ptr %3, align 8
  %.not23 = icmp eq ptr %11, null
  br i1 %.not23, label %16, label %.preheader27

.preheader27:                                     ; preds = %tailrecurse, %.preheader27
  %.0 = phi ptr [ %13, %.preheader27 ], [ %.tr, %tailrecurse ]
  %12 = getelementptr inbounds i8, ptr %.0, i64 264
  %13 = load ptr, ptr %12, align 8
  %.not24 = icmp eq ptr %13, null
  br i1 %.not24, label %14, label %.preheader27, !llvm.loop !18

14:                                               ; preds = %.preheader27
  %15 = getelementptr inbounds i8, ptr %.0, i64 264
  store ptr %11, ptr %15, align 8
  br label %16

16:                                               ; preds = %tailrecurse, %14
  %.not25 = icmp eq ptr %10, null
  br i1 %.not25, label %.split31.us, label %tailrecurse

.split31.us:                                      ; preds = %16, %.loopexit.us
  ret void
}